; Function Attrs: mustprogress uwtable
define internal void @_ZN5folly6fibers12_GLOBAL__N_112FutureWaiter4postEv(ptr noundef nonnull align 8 dereferenceable(48) %0) unnamed_addr #0 align 2 personality ptr @__gxx_personality_v0 {
  %2 = alloca %"class.folly::Try", align 8
  %3 = alloca %"class.std::unique_ptr", align 8
  call void @llvm.lifetime.start.p0(i64 8, ptr nonnull %3) #7
  store ptr %0, ptr %3, align 8, !tbaa !73
  %4 = getelementptr inbounds nuw i8, ptr %0, i64 32
  call void @llvm.lifetime.start.p0(i64 16, ptr nonnull %2) #7
  store i32 0, ptr %2, align 8, !tbaa !96
  invoke void @_ZN5folly7PromiseINS_4UnitEE6setTryEONS_3TryIS1_EE(ptr noundef nonnull align 8 dereferenceable(16) %4, ptr noundef nonnull align 8 dereferenceable(16) %2)
          to label %5 unwind label %11

5:                                                ; preds = %1
  %6 = load i32, ptr %2, align 8, !tbaa !96
  %cond.i.i = icmp eq i32 %6, 1
  br i1 %cond.i.i, label %7, label %18, !prof !99

7:                                                ; preds = %5
  %8 = getelementptr inbounds nuw i8, ptr %2, i64 8
  %9 = load ptr, ptr %8, align 8, !tbaa !100
  %.not.i.i.i.i = icmp eq ptr %9, null
  br i1 %.not.i.i.i.i, label %18, label %10

10:                                               ; preds = %7
  call void @_ZNSt15__exception_ptr13exception_ptr10_M_releaseEv(ptr noundef nonnull align 8 dereferenceable(8) %8) #7
  br label %18

11:                                               ; preds = %1
  %12 = landingpad { ptr, i32 }
          cleanup
  %13 = load i32, ptr %2, align 8, !tbaa !96
  %cond.i2.i = icmp eq i32 %13, 1
  br i1 %cond.i2.i, label %14, label %_ZN5folly6detail7TryBaseINS_4UnitEED2Ev.exit4.i, !prof !99

14:                                               ; preds = %11
  %15 = getelementptr inbounds nuw i8, ptr %2, i64 8
  %16 = load ptr, ptr %15, align 8, !tbaa !100
  %.not.i.i.i3.i = icmp eq ptr %16, null
  br i1 %.not.i.i.i3.i, label %_ZN5folly6detail7TryBaseINS_4UnitEED2Ev.exit4.i, label %17

17:                                               ; preds = %14
  call void @_ZNSt15__exception_ptr13exception_ptr10_M_releaseEv(ptr noundef nonnull align 8 dereferenceable(8) %15) #7
  br label %_ZN5folly6detail7TryBaseINS_4UnitEED2Ev.exit4.i

_ZN5folly6detail7TryBaseINS_4UnitEED2Ev.exit4.i:  ; preds = %17, %14, %11
  call void @llvm.lifetime.end.p0(i64 16, ptr nonnull %2) #7
  call fastcc void @_ZNSt10unique_ptrIN5folly6fibers12_GLOBAL__N_112FutureWaiterESt14default_deleteIS3_EED2Ev(ptr noundef nonnull align 8 dereferenceable(8) %3) #7
  call void @llvm.lifetime.end.p0(i64 8, ptr nonnull %3) #7
  resume { ptr, i32 } %12

18:                                               ; preds = %5, %7, %10
  call void @llvm.lifetime.end.p0(i64 16, ptr nonnull %2) #7
  %19 = getelementptr inbounds nuw i8, ptr %0, i64 40
  %20 = load ptr, ptr %19, align 8, !tbaa !70
  %.not.i.i.i.i.i = icmp eq ptr %20, null
  br i1 %.not.i.i.i.i.i, label %_ZNSt10unique_ptrIN5folly6fibers12_GLOBAL__N_112FutureWaiterESt14default_deleteIS3_EED2Ev.exit, label %21

21:                                               ; preds = %18
  %22 = load i8, ptr %4, align 8, !tbaa !78, !range !26, !noundef !27
  %23 = trunc nuw i8 %22 to i1
  br i1 %23, label %25, label %24

24:                                               ; preds = %21
  call void @_ZN5folly7futures6detail8CoreBase9detachOneEv(ptr noundef nonnull align 16 dereferenceable(136) %20) #7
  %.pre.i.i.i.i.i = load ptr, ptr %19, align 8, !tbaa !70
  br label %25

25:                                               ; preds = %24, %21
  %26 = phi ptr [ %.pre.i.i.i.i.i, %24 ], [ %20, %21 ]
  invoke void @_ZN5folly7futures6detail32coreDetachPromiseMaybeWithResultINS_4UnitEEEvRNS1_4CoreIT_EE(ptr noundef nonnull align 16 dereferenceable(160) %26)
          to label %_ZNSt10unique_ptrIN5folly6fibers12_GLOBAL__N_112FutureWaiterESt14default_deleteIS3_EED2Ev.exit unwind label %27

27:                                               ; preds = %25
  %28 = landingpad { ptr, i32 }
          catch ptr null
  %29 = extractvalue { ptr, i32 } %28, 0
  call void @__clang_call_terminate(ptr %29) #20
  unreachable

_ZNSt10unique_ptrIN5folly6fibers12_GLOBAL__N_112FutureWaiterESt14default_deleteIS3_EED2Ev.exit: ; preds = %18, %25
  call void @_ZdlPvm(ptr noundef nonnull %0, i64 noundef 48) #23
  call void @llvm.lifetime.end.p0(i64 8, ptr nonnull %3) #7
  ret void
}